target datalayout = "e-m:e-p270:32:32-p271:32:32-p272:64:64-i64:64-i128:128-f80:128-n8:16:32:64-S128"
target triple = "x86_64-pc-linux-gnu"

%"class.llvm::Value" = type { i8, i8, i16, i32, ptr, ptr }
%"class.llvm::ilist_node_impl" = type { %"class.llvm::ilist_node_base" }
%"class.llvm::ilist_node_base" = type { %"class.llvm::ilist_detail::node_base_prevnext", %"class.llvm::ilist_detail::node_base_parent" }
%"class.llvm::ilist_detail::node_base_prevnext" = type { ptr, ptr }
%"class.llvm::ilist_detail::node_base_parent" = type { ptr }
%"class.llvm::ilist_node_base.14" = type { %"class.llvm::ilist_detail::node_base_prevnext.15" }
%"class.llvm::ilist_detail::node_base_prevnext.15" = type { ptr, ptr }
%"class.llvm::BasicBlock" = type { %"class.llvm::Value", %"class.llvm::ilist_node_with_parent.19", i8, i32, %"class.llvm::SymbolTableList", ptr }
%"class.llvm::ilist_node_with_parent.19" = type { %"class.llvm::ilist_node.20" }
%"class.llvm::ilist_node.20" = type { %"class.llvm::ilist_node_impl.21" }
%"class.llvm::ilist_node_impl.21" = type { %"class.llvm::ilist_node_base.14" }
%"class.llvm::SymbolTableList" = type { %"class.llvm::iplist_impl" }
%"class.llvm::iplist_impl" = type { %"class.llvm::simple_ilist.23" }
%"class.llvm::simple_ilist.23" = type { %"class.llvm::ilist_sentinel.25" }
%"class.llvm::ilist_sentinel.25" = type { %"class.llvm::ilist_node_impl" }

; Function Attrs: mustprogress nounwind uwtable
define dso_local void @_ZN4llvm10BasicBlock21setIsNewDbgInfoFormatEb(ptr noundef nonnull align 8 dereferenceable(80) %0, i1 noundef zeroext %1) #1 align 2 {
  %3 = alloca ptr, align 8
  %4 = alloca i8, align 1
  store ptr %0, ptr %3, align 8
  %5 = zext i1 %1 to i8
  store i8 %5, ptr %4, align 1
  %6 = load ptr, ptr %3, align 8
  %7 = load i8, ptr %4, align 1
  %8 = trunc i8 %7 to i1
  br i1 %8, label %9, label %14

9:                                                ; preds = %2
  %10 = getelementptr inbounds nuw %"class.llvm::BasicBlock", ptr %6, i32 0, i32 2
  %11 = load i8, ptr %10, align 8
  %12 = trunc i8 %11 to i1
  br i1 %12, label %14, label %13

13:                                               ; preds = %9
  call void @_ZN4llvm10BasicBlock21convertToNewDbgValuesEv(ptr noundef nonnull align 8 dereferenceable(80) %6)
  br label %23

14:                                               ; preds = %9, %2
  %15 = load i8, ptr %4, align 1
  %16 = trunc i8 %15 to i1
  br i1 %16, label %22, label %17

17:                                               ; preds = %14
  %18 = getelementptr inbounds nuw %"class.llvm::BasicBlock", ptr %6, i32 0, i32 2
  %19 = load i8, ptr %18, align 8
  %20 = trunc i8 %19 to i1
  br i1 %20, label %21, label %22

21:                                               ; preds = %17
  call void @_ZN4llvm10BasicBlock23convertFromNewDbgValuesEv(ptr noundef nonnull align 8 dereferenceable(80) %6)
  br label %22

22:                                               ; preds = %21, %17, %14
  br label %23

23:                                               ; preds = %22, %13
  ret void
}