; Function Attrs: mustprogress nounwind uwtable
define dso_local void @_ZN4llvm10BasicBlock21setIsNewDbgInfoFormatEb(ptr noundef nonnull align 8 dereferenceable(80) %0, i1 noundef zeroext %1) local_unnamed_addr #0 align 2 {
  %3 = getelementptr inbounds nuw i8, ptr %0, i64 40
  %4 = load i8, ptr %3, align 8
  %5 = trunc i8 %4 to i1
  br i1 %1, label %6, label %.critedge

6:                                                ; preds = %2
  br i1 %5, label %9, label %7

7:                                                ; preds = %6
  tail call void @_ZN4llvm10BasicBlock21convertToNewDbgValuesEv(ptr noundef nonnull align 8 dereferenceable(80) %0)
  br label %9

.critedge:                                        ; preds = %2
  br i1 %5, label %8, label %9

8:                                                ; preds = %.critedge
  tail call void @_ZN4llvm10BasicBlock23convertFromNewDbgValuesEv(ptr noundef nonnull align 8 dereferenceable(80) %0)
  br label %9

9:                                                ; preds = %6, %.critedge, %8, %7
  ret void
}